target datalayout = "e-m:e-p270:32:32-p271:32:32-p272:64:64-i64:64-i128:128-f80:128-n8:16:32:64-S128"
target triple = "x86_64-pc-linux-gnu"

%struct._packet_info = type { ptr, ptr, i32, i32, %struct.nstime_t, %struct.nstime_t, %struct.nstime_t, i8, ptr, ptr, ptr, ptr, %struct._address, %struct._address, %struct._address, %struct._address, %struct._address, %struct._address, i32, ptr, i8, [3 x i8], %struct.anon, i32, i32, i32, i32, ptr, i8, ptr, ptr, i16, i16, i32, i32, i16, i32, i32, ptr, ptr, ptr, i8, i8, i16, i16, i16, i32, i16, i16, ptr, ptr, ptr, ptr, ptr, i32, i32 }
%struct.nstime_t = type { i64, i32 }
%struct._address = type { i32, i32, ptr, ptr }
%struct.anon = type { i8, [3 x i8] }
%struct.pcp_conv_info_t = type { ptr, ptr, i32, i32, i8 }

@hf_pcp_pdu_error = internal global i32 0, align 4
@proto_pcp = internal global i32 0, align 4
@.str.402 = private unnamed_addr constant [29 x i8] c"%s:%u: failed assertion \22%s\22\00", align 1
@.str.403 = private unnamed_addr constant [29 x i8] c"epan/dissectors/packet-pcp.c\00", align 1
@.str.404 = private unnamed_addr constant [13 x i8] c"conversation\00", align 1
@.str.405 = private unnamed_addr constant [14 x i8] c"pcp_conv_info\00", align 1
@.str.406 = private unnamed_addr constant [9 x i8] c"[ERROR] \00", align 1
@.str.407 = private unnamed_addr constant [10 x i8] c"error=%s \00", align 1
@.str.408 = private unnamed_addr constant [17 x i8] c"Unknown Error:%i\00", align 1

; Function Attrs: null_pointer_is_valid sspstrong uwtable
define internal ptr @get_pcp_conversation_info(ptr noundef %0) #0 {
  %2 = alloca ptr, align 8
  %3 = alloca ptr, align 8
  %4 = alloca ptr, align 8
  store ptr %0, ptr %2, align 8
  call void @llvm.lifetime.start.p0(i64 8, ptr %3) #8
  call void @llvm.lifetime.start.p0(i64 8, ptr %4) #8
  %5 = load ptr, ptr %2, align 8
  %6 = call ptr @find_conversation_pinfo(ptr noundef %5, i32 noundef 0)
  store ptr %6, ptr %3, align 8
  %7 = load ptr, ptr %3, align 8
  %8 = icmp ne ptr %7, null
  br i1 %8, label %9, label %10

9:                                                ; preds = %1
  br label %12

10:                                               ; preds = %1
  call void (ptr, ...) @proto_report_dissector_bug(ptr noundef @.str.402, ptr noundef @.str.403, i32 noundef 607, ptr noundef @.str.404) #10
  unreachable

11:                                               ; No predecessors!
  br label %12

12:                                               ; preds = %11, %9
  %13 = load ptr, ptr %3, align 8
  %14 = load i32, ptr @proto_pcp, align 4
  %15 = call ptr @conversation_get_proto_data(ptr noundef %13, i32 noundef %14)
  store ptr %15, ptr %4, align 8
  %16 = load ptr, ptr %4, align 8
  %17 = icmp ne ptr %16, null
  br i1 %17, label %18, label %19

18:                                               ; preds = %12
  br label %21

19:                                               ; preds = %12
  call void (ptr, ...) @proto_report_dissector_bug(ptr noundef @.str.402, ptr noundef @.str.403, i32 noundef 612, ptr noundef @.str.405) #10
  unreachable

20:                                               ; No predecessors!
  br label %21

21:                                               ; preds = %20, %18
  %22 = load ptr, ptr %4, align 8
  call void @llvm.lifetime.end.p0(i64 8, ptr %4) #8
  call void @llvm.lifetime.end.p0(i64 8, ptr %3) #8
  ret ptr %22
}

; Function Attrs: null_pointer_is_valid sspstrong uwtable
define internal i32 @dissect_pcp_message_error(ptr noundef %0, ptr noundef %1, ptr noundef %2, i32 noundef %3) #0 {
  %5 = alloca ptr, align 8
  %6 = alloca ptr, align 8
  %7 = alloca ptr, align 8
  %8 = alloca i32, align 4
  %9 = alloca i32, align 4
  %10 = alloca ptr, align 8
  store ptr %0, ptr %5, align 8
  store ptr %1, ptr %6, align 8
  store ptr %2, ptr %7, align 8
  store i32 %3, ptr %8, align 4
  call void @llvm.lifetime.start.p0(i64 4, ptr %9) #8
  call void @llvm.lifetime.start.p0(i64 8, ptr %10) #8
  %11 = load ptr, ptr %6, align 8
  %12 = getelementptr inbounds nuw %struct._packet_info, ptr %11, i32 0, i32 1
  %13 = load ptr, ptr %12, align 8
  call void @col_append_str(ptr noundef %13, i32 noundef 25, ptr noundef @.str.406)
  %14 = load ptr, ptr %7, align 8
  %15 = load i32, ptr @hf_pcp_pdu_error, align 4
  %16 = load ptr, ptr %5, align 8
  %17 = load i32, ptr %8, align 4
  %18 = call ptr @proto_tree_add_item(ptr noundef %14, i32 noundef %15, ptr noundef %16, i32 noundef %17, i32 noundef 4, i32 noundef 0)
  %19 = load ptr, ptr %5, align 8
  %20 = load i32, ptr %8, align 4
  %21 = call i32 @tvb_get_ntohl(ptr noundef %19, i32 noundef %20)
  store i32 %21, ptr %9, align 4
  %22 = load ptr, ptr %6, align 8
  %23 = getelementptr inbounds nuw %struct._packet_info, ptr %22, i32 0, i32 1
  %24 = load ptr, ptr %23, align 8
  %25 = load i32, ptr %9, align 4
  %26 = call ptr @val_to_str(i32 noundef %25, ptr noundef @packettypenames_errors, ptr noundef @.str.408)
  call void (ptr, i32, ptr, ...) @col_append_fstr(ptr noundef %24, i32 noundef 25, ptr noundef @.str.407, ptr noundef %26)
  %27 = load i32, ptr %8, align 4
  %28 = add i32 %27, 4
  store i32 %28, ptr %8, align 4
  %29 = load i32, ptr %9, align 4
  %30 = icmp eq i32 %29, -12357
  br i1 %30, label %31, label %38

31:                                               ; preds = %4
  %32 = load ptr, ptr %6, align 8
  %33 = call ptr @get_pcp_conversation_info(ptr noundef %32)
  store ptr %33, ptr %10, align 8
  %34 = call ptr @wmem_file_scope()
  %35 = call noalias ptr @wmem_array_new(ptr noundef %34, i64 noundef 8)
  %36 = load ptr, ptr %10, align 8
  %37 = getelementptr inbounds nuw %struct.pcp_conv_info_t, ptr %36, i32 0, i32 0
  store ptr %35, ptr %37, align 8
  br label %38

38:                                               ; preds = %31, %4
  %39 = load i32, ptr %8, align 4
  call void @llvm.lifetime.end.p0(i64 8, ptr %10) #8
  call void @llvm.lifetime.end.p0(i64 4, ptr %9) #8
  ret i32 %39
}