; Function Attrs: null_pointer_is_valid sspstrong uwtable
define internal fastcc void @dissect_pcp_message_error(ptr noundef %0, ptr noundef %1, ptr noundef %2) unnamed_addr #0 {
  %4 = getelementptr inbounds nuw i8, ptr %1, i64 8
  %5 = load ptr, ptr %4, align 8
  tail call void @col_append_str(ptr noundef %5, i32 noundef 25, ptr noundef nonnull @.str.406)
  %6 = load i32, ptr @hf_pcp_pdu_error, align 4
  %7 = tail call ptr @proto_tree_add_item(ptr noundef %2, i32 noundef %6, ptr noundef %0, i32 noundef 12, i32 noundef 4, i32 noundef 0)
  %8 = tail call i32 @tvb_get_ntohl(ptr noundef %0, i32 noundef 12)
  %9 = load ptr, ptr %4, align 8
  %10 = tail call ptr @val_to_str(i32 noundef %8, ptr noundef nonnull @packettypenames_errors, ptr noundef nonnull @.str.408)
  tail call void (ptr, i32, ptr, ...) @col_append_fstr(ptr noundef %9, i32 noundef 25, ptr noundef nonnull @.str.407, ptr noundef %10)
  %11 = icmp eq i32 %8, -12357
  br i1 %11, label %12, label %21

12:                                               ; preds = %3
  %13 = tail call ptr @find_conversation_pinfo(ptr noundef %1, i32 noundef 0)
  %.not.i = icmp eq ptr %13, null
  br i1 %.not.i, label %14, label %15

14:                                               ; preds = %12
  tail call void (ptr, ...) @proto_report_dissector_bug(ptr noundef nonnull @.str.402, ptr noundef nonnull @.str.403, i32 noundef 607, ptr noundef nonnull @.str.404) #9
  unreachable

15:                                               ; preds = %12
  %16 = load i32, ptr @proto_pcp, align 4
  %17 = tail call ptr @conversation_get_proto_data(ptr noundef nonnull %13, i32 noundef %16)
  %.not6.i = icmp eq ptr %17, null
  br i1 %.not6.i, label %18, label %get_pcp_conversation_info.exit

18:                                               ; preds = %15
  tail call void (ptr, ...) @proto_report_dissector_bug(ptr noundef nonnull @.str.402, ptr noundef nonnull @.str.403, i32 noundef 612, ptr noundef nonnull @.str.405) #9
  unreachable

get_pcp_conversation_info.exit:                   ; preds = %15
  %19 = tail call ptr @wmem_file_scope()
  %20 = tail call noalias ptr @wmem_array_new(ptr noundef %19, i64 noundef 8)
  store ptr %20, ptr %17, align 8
  br label %21

21:                                               ; preds = %get_pcp_conversation_info.exit, %3
  ret void
}